target datalayout = "e-m:e-p270:32:32-p271:32:32-p272:64:64-i64:64-i128:128-f80:128-n8:16:32:64-S128"
target triple = "x86_64-unknown-linux-gnu"

%"struct.rocksdb::PerfContext" = type <{ %"struct.rocksdb::PerfContextBase", ptr, i8, [7 x i8] }>
%"struct.rocksdb::PerfContextBase" = type { i64, i64, i64, i64, i64, i64, i64, i64, i64, i64, i64, i64, i64, i64, i64, i64, i64, i64, i64, i64, i64, i64, i64, i64, i64, i64, i64, i64, i64, i64, i64, i64, i64, i64, i64, i64, i64, i64, i64, i64, i64, i64, i64, i64, i64, i64, i64, i64, i64, i64, i64, i64, i64, i64, i64, i64, i64, i64, i64, i64, i64, i64, i64, i64, i64, i64, i64, i64, i64, i64, i64, i64, i64, i64, i64, i64, i64, i64, i64, i64, i64, i64, i64, i64, i64, i64, i64, i64, i64, i64, i64, i64, i64, i64, i64, i64, i64, i64, i64, i64, i64 }
%"class.rocksdb::IOStatus" = type { %"class.rocksdb::Status" }
%"class.rocksdb::Status" = type { i8, i8, i8, i8, i8, i8, %"class.std::unique_ptr" }
%"class.std::unique_ptr" = type { %"struct.std::__uniq_ptr_data" }
%"struct.std::__uniq_ptr_data" = type { %"class.std::__uniq_ptr_impl" }
%"class.std::__uniq_ptr_impl" = type { %"class.std::tuple" }
%"class.std::tuple" = type { %"struct.std::_Tuple_impl" }
%"struct.std::_Tuple_impl" = type { %"struct.std::_Head_base.1" }
%"struct.std::_Head_base.1" = type { ptr }
%"class.rocksdb::PerfStepTimer" = type { i8, i8, i32, ptr, i64, ptr, ptr }
%"class.rocksdb::FileSystemWrapper" = type { %"class.rocksdb::FileSystem", %"class.std::shared_ptr" }
%"class.rocksdb::FileSystem" = type { %"class.rocksdb::Customizable" }
%"class.rocksdb::Customizable" = type { %"class.rocksdb::Configurable" }
%"class.rocksdb::Configurable" = type { ptr, %"class.std::vector" }
%"class.std::vector" = type { %"struct.std::_Vector_base" }
%"struct.std::_Vector_base" = type { %"struct.std::_Vector_base<rocksdb::Configurable::RegisteredOptions, std::allocator<rocksdb::Configurable::RegisteredOptions>>::_Vector_impl" }
%"struct.std::_Vector_base<rocksdb::Configurable::RegisteredOptions, std::allocator<rocksdb::Configurable::RegisteredOptions>>::_Vector_impl" = type { %"struct.std::_Vector_base<rocksdb::Configurable::RegisteredOptions, std::allocator<rocksdb::Configurable::RegisteredOptions>>::_Vector_impl_data" }
%"struct.std::_Vector_base<rocksdb::Configurable::RegisteredOptions, std::allocator<rocksdb::Configurable::RegisteredOptions>>::_Vector_impl_data" = type { ptr, ptr, ptr }
%"class.std::shared_ptr" = type { %"class.std::__shared_ptr" }
%"class.std::__shared_ptr" = type { ptr, %"class.std::__shared_count" }
%"class.std::__shared_count" = type { ptr }
%"class.std::__shared_ptr.14" = type { ptr, %"class.std::__shared_count" }

@_ZN7rocksdb12perf_contextE = external thread_local global %"struct.rocksdb::PerfContext", align 8
@_ZN7rocksdb10perf_levelE = external thread_local global i8, align 1

; Function Attrs: mustprogress nounwind uwtable
define linkonce_odr noundef ptr @_ZNKSt12__shared_ptrIN7rocksdb10FileSystemELN9__gnu_cxx12_Lock_policyE2EE3getEv(ptr noundef nonnull align 8 dereferenceable(16) %this) #3 comdat align 2 {
entry:
  %this.addr = alloca ptr, align 8
  store ptr %this, ptr %this.addr, align 8
  %this1 = load ptr, ptr %this.addr, align 8
  %_M_ptr = getelementptr inbounds %"class.std::__shared_ptr", ptr %this1, i32 0, i32 0
  %0 = load ptr, ptr %_M_ptr, align 8
  ret ptr %0
}

; Function Attrs: mustprogress nounwind uwtable
define linkonce_odr noundef ptr @_ZNKSt19__shared_ptr_accessIN7rocksdb10FileSystemELN9__gnu_cxx12_Lock_policyE2ELb0ELb0EE6_M_getEv(ptr noundef nonnull align 1 dereferenceable(1) %this) #3 comdat align 2 {
entry:
  %this.addr = alloca ptr, align 8
  store ptr %this, ptr %this.addr, align 8
  %this1 = load ptr, ptr %this.addr, align 8
  %call = call noundef ptr @_ZNKSt12__shared_ptrIN7rocksdb10FileSystemELN9__gnu_cxx12_Lock_policyE2EE3getEv(ptr noundef nonnull align 8 dereferenceable(16) %this1) #13
  ret ptr %call
}

; Function Attrs: mustprogress nounwind uwtable
define linkonce_odr noundef ptr @_ZNKSt19__shared_ptr_accessIN7rocksdb10FileSystemELN9__gnu_cxx12_Lock_policyE2ELb0ELb0EEptEv(ptr noundef nonnull align 1 dereferenceable(1) %this) #3 comdat align 2 {
entry:
  %this.addr = alloca ptr, align 8
  store ptr %this, ptr %this.addr, align 8
  %this1 = load ptr, ptr %this.addr, align 8
  %call = call noundef ptr @_ZNKSt19__shared_ptr_accessIN7rocksdb10FileSystemELN9__gnu_cxx12_Lock_policyE2ELb0ELb0EE6_M_getEv(ptr noundef nonnull align 1 dereferenceable(1) %this1) #13
  ret ptr %call
}

; Function Attrs: mustprogress uwtable
define linkonce_odr noundef i64 @_ZN7rocksdb13PerfStepTimer8time_nowEv(ptr noundef nonnull align 8 dereferenceable(40) %this) #0 comdat align 2 {
entry:
  %retval = alloca i64, align 8
  %this.addr = alloca ptr, align 8
  store ptr %this, ptr %this.addr, align 8
  %this1 = load ptr, ptr %this.addr, align 8
  %use_cpu_time_ = getelementptr inbounds %"class.rocksdb::PerfStepTimer", ptr %this1, i32 0, i32 1
  %0 = load i8, ptr %use_cpu_time_, align 1
  %tobool = trunc i8 %0 to i1
  br i1 %tobool, label %if.else, label %if.then

if.then:                                          ; preds = %entry
  %clock_ = getelementptr inbounds %"class.rocksdb::PerfStepTimer", ptr %this1, i32 0, i32 3
  %1 = load ptr, ptr %clock_, align 8
  %vtable = load ptr, ptr %1, align 8
  %vfn = getelementptr inbounds ptr, ptr %vtable, i64 20
  %2 = load ptr, ptr %vfn, align 8
  %call = call noundef i64 %2(ptr noundef nonnull align 8 dereferenceable(32) %1)
  store i64 %call, ptr %retval, align 8
  br label %return

if.else:                                          ; preds = %entry
  %clock_2 = getelementptr inbounds %"class.rocksdb::PerfStepTimer", ptr %this1, i32 0, i32 3
  %3 = load ptr, ptr %clock_2, align 8
  %vtable3 = load ptr, ptr %3, align 8
  %vfn4 = getelementptr inbounds ptr, ptr %vtable3, i64 22
  %4 = load ptr, ptr %vfn4, align 8
  %call5 = call noundef i64 %4(ptr noundef nonnull align 8 dereferenceable(32) %3)
  store i64 %call5, ptr %retval, align 8
  br label %return

return:                                           ; preds = %if.else, %if.then
  %5 = load i64, ptr %retval, align 8
  ret i64 %5
}

; Function Attrs: mustprogress nounwind uwtable
define linkonce_odr noundef ptr @_ZNKSt12__shared_ptrIN7rocksdb11SystemClockELN9__gnu_cxx12_Lock_policyE2EE3getEv(ptr noundef nonnull align 8 dereferenceable(16) %this) #3 comdat align 2 {
entry:
  %this.addr = alloca ptr, align 8
  store ptr %this, ptr %this.addr, align 8
  %this1 = load ptr, ptr %this.addr, align 8
  %_M_ptr = getelementptr inbounds %"class.std::__shared_ptr.14", ptr %this1, i32 0, i32 0
  %0 = load ptr, ptr %_M_ptr, align 8
  ret ptr %0
}

; Function Attrs: uwtable
define linkonce_odr hidden noundef ptr @_ZTWN7rocksdb10perf_levelE() #2 comdat {
  br i1 icmp ne (ptr @_ZTHN7rocksdb10perf_levelE, ptr null), label %1, label %2

1:                                                ; preds = %0
  call void @_ZTHN7rocksdb10perf_levelE()
  br label %2

2:                                                ; preds = %1, %0
  %3 = call align 1 ptr @llvm.threadlocal.address.p0(ptr align 1 @_ZN7rocksdb10perf_levelE)
  ret ptr %3
}

; Function Attrs: mustprogress uwtable
define linkonce_odr void @_ZN7rocksdb17FileSystemWrapper11GetFileSizeERKNSt7__cxx1112basic_stringIcSt11char_traitsIcESaIcEEERKNS_9IOOptionsEPmPNS_14IODebugContextE(ptr noalias sret(%"class.rocksdb::IOStatus") align 8 %agg.result, ptr noundef nonnull align 8 dereferenceable(48) %this, ptr noundef nonnull align 8 dereferenceable(32) %f, ptr noundef nonnull align 8 dereferenceable(83) %options, ptr noundef %s, ptr noundef %dbg) unnamed_addr #0 comdat align 2 {
entry:
  %result.ptr = alloca ptr, align 8
  %this.addr = alloca ptr, align 8
  %f.addr = alloca ptr, align 8
  %options.addr = alloca ptr, align 8
  %s.addr = alloca ptr, align 8
  %dbg.addr = alloca ptr, align 8
  store ptr %agg.result, ptr %result.ptr, align 8
  store ptr %this, ptr %this.addr, align 8
  store ptr %f, ptr %f.addr, align 8
  store ptr %options, ptr %options.addr, align 8
  store ptr %s, ptr %s.addr, align 8
  store ptr %dbg, ptr %dbg.addr, align 8
  %this1 = load ptr, ptr %this.addr, align 8
  %target_ = getelementptr inbounds %"class.rocksdb::FileSystemWrapper", ptr %this1, i32 0, i32 1
  %call = call noundef ptr @_ZNKSt19__shared_ptr_accessIN7rocksdb10FileSystemELN9__gnu_cxx12_Lock_policyE2ELb0ELb0EEptEv(ptr noundef nonnull align 1 dereferenceable(1) %target_) #13
  %0 = load ptr, ptr %f.addr, align 8
  %1 = load ptr, ptr %options.addr, align 8
  %2 = load ptr, ptr %s.addr, align 8
  %3 = load ptr, ptr %dbg.addr, align 8
  %vtable = load ptr, ptr %call, align 8
  %vfn = getelementptr inbounds ptr, ptr %vtable, i64 37
  %4 = load ptr, ptr %vfn, align 8
  call void %4(ptr sret(%"class.rocksdb::IOStatus") align 8 %agg.result, ptr noundef nonnull align 8 dereferenceable(32) %call, ptr noundef nonnull align 8 dereferenceable(32) %0, ptr noundef nonnull align 8 dereferenceable(83) %1, ptr noundef %2, ptr noundef %3)
  ret void
}

; Function Attrs: mustprogress uwtable
define linkonce_odr void @_ZN7rocksdb13PerfStepTimer5StartEv(ptr noundef nonnull align 8 dereferenceable(40) %this) #0 comdat align 2 {
entry:
  %this.addr = alloca ptr, align 8
  store ptr %this, ptr %this.addr, align 8
  %this1 = load ptr, ptr %this.addr, align 8
  %perf_counter_enabled_ = getelementptr inbounds %"class.rocksdb::PerfStepTimer", ptr %this1, i32 0, i32 0
  %0 = load i8, ptr %perf_counter_enabled_, align 8
  %tobool = trunc i8 %0 to i1
  br i1 %tobool, label %if.then, label %lor.lhs.false

lor.lhs.false:                                    ; preds = %entry
  %statistics_ = getelementptr inbounds %"class.rocksdb::PerfStepTimer", ptr %this1, i32 0, i32 6
  %1 = load ptr, ptr %statistics_, align 8
  %cmp = icmp ne ptr %1, null
  br i1 %cmp, label %if.then, label %if.end

if.then:                                          ; preds = %lor.lhs.false, %entry
  %call = call noundef i64 @_ZN7rocksdb13PerfStepTimer8time_nowEv(ptr noundef nonnull align 8 dereferenceable(40) %this1)
  %start_ = getelementptr inbounds %"class.rocksdb::PerfStepTimer", ptr %this1, i32 0, i32 4
  store i64 %call, ptr %start_, align 8
  br label %if.end

if.end:                                           ; preds = %if.then, %lor.lhs.false
  ret void
}

; Function Attrs: mustprogress uwtable
define linkonce_odr void @_ZN7rocksdb13PerfStepTimerC2EPmPNS_11SystemClockEbNS_9PerfLevelEPNS_10StatisticsEj(ptr noundef nonnull align 8 dereferenceable(40) %this, ptr noundef %metric, ptr noundef %clock, i1 noundef zeroext %use_cpu_time, i8 noundef zeroext %enable_level, ptr noundef %statistics, i32 noundef %ticker_type) unnamed_addr #0 comdat align 2 {
entry:
  %this.addr = alloca ptr, align 8
  %metric.addr = alloca ptr, align 8
  %clock.addr = alloca ptr, align 8
  %use_cpu_time.addr = alloca i8, align 1
  %enable_level.addr = alloca i8, align 1
  %statistics.addr = alloca ptr, align 8
  %ticker_type.addr = alloca i32, align 4
  store ptr %this, ptr %this.addr, align 8
  store ptr %metric, ptr %metric.addr, align 8
  store ptr %clock, ptr %clock.addr, align 8
  %frombool = zext i1 %use_cpu_time to i8
  store i8 %frombool, ptr %use_cpu_time.addr, align 1
  store i8 %enable_level, ptr %enable_level.addr, align 1
  store ptr %statistics, ptr %statistics.addr, align 8
  store i32 %ticker_type, ptr %ticker_type.addr, align 4
  %this1 = load ptr, ptr %this.addr, align 8
  %perf_counter_enabled_ = getelementptr inbounds %"class.rocksdb::PerfStepTimer", ptr %this1, i32 0, i32 0
  %0 = call ptr @_ZTWN7rocksdb10perf_levelE()
  %1 = load i8, ptr %0, align 1
  %conv = zext i8 %1 to i32
  %2 = load i8, ptr %enable_level.addr, align 1
  %conv2 = zext i8 %2 to i32
  %cmp = icmp sge i32 %conv, %conv2
  %frombool3 = zext i1 %cmp to i8
  store i8 %frombool3, ptr %perf_counter_enabled_, align 8
  %use_cpu_time_ = getelementptr inbounds %"class.rocksdb::PerfStepTimer", ptr %this1, i32 0, i32 1
  %3 = load i8, ptr %use_cpu_time.addr, align 1
  %tobool = trunc i8 %3 to i1
  %frombool4 = zext i1 %tobool to i8
  store i8 %frombool4, ptr %use_cpu_time_, align 1
  %ticker_type_ = getelementptr inbounds %"class.rocksdb::PerfStepTimer", ptr %this1, i32 0, i32 2
  %4 = load i32, ptr %ticker_type.addr, align 4
  store i32 %4, ptr %ticker_type_, align 4
  %clock_ = getelementptr inbounds %"class.rocksdb::PerfStepTimer", ptr %this1, i32 0, i32 3
  %perf_counter_enabled_5 = getelementptr inbounds %"class.rocksdb::PerfStepTimer", ptr %this1, i32 0, i32 0
  %5 = load i8, ptr %perf_counter_enabled_5, align 8
  %tobool6 = trunc i8 %5 to i1
  br i1 %tobool6, label %cond.true, label %lor.lhs.false

lor.lhs.false:                                    ; preds = %entry
  %6 = load ptr, ptr %statistics.addr, align 8
  %cmp7 = icmp ne ptr %6, null
  br i1 %cmp7, label %cond.true, label %cond.false11

cond.true:                                        ; preds = %lor.lhs.false, %entry
  %7 = load ptr, ptr %clock.addr, align 8
  %tobool8 = icmp ne ptr %7, null
  br i1 %tobool8, label %cond.true9, label %cond.false

cond.true9:                                       ; preds = %cond.true
  %8 = load ptr, ptr %clock.addr, align 8
  br label %cond.end

cond.false:                                       ; preds = %cond.true
  %call = call noundef nonnull align 8 dereferenceable(16) ptr @_ZN7rocksdb11SystemClock7DefaultEv()
  %call10 = call noundef ptr @_ZNKSt12__shared_ptrIN7rocksdb11SystemClockELN9__gnu_cxx12_Lock_policyE2EE3getEv(ptr noundef nonnull align 8 dereferenceable(16) %call) #13
  br label %cond.end

cond.end:                                         ; preds = %cond.false, %cond.true9
  %cond = phi ptr [ %8, %cond.true9 ], [ %call10, %cond.false ]
  br label %cond.end12

cond.false11:                                     ; preds = %lor.lhs.false
  br label %cond.end12

cond.end12:                                       ; preds = %cond.false11, %cond.end
  %cond13 = phi ptr [ %cond, %cond.end ], [ null, %cond.false11 ]
  store ptr %cond13, ptr %clock_, align 8
  %start_ = getelementptr inbounds %"class.rocksdb::PerfStepTimer", ptr %this1, i32 0, i32 4
  store i64 0, ptr %start_, align 8
  %metric_ = getelementptr inbounds %"class.rocksdb::PerfStepTimer", ptr %this1, i32 0, i32 5
  %9 = load ptr, ptr %metric.addr, align 8
  store ptr %9, ptr %metric_, align 8
  %statistics_ = getelementptr inbounds %"class.rocksdb::PerfStepTimer", ptr %this1, i32 0, i32 6
  %10 = load ptr, ptr %statistics.addr, align 8
  store ptr %10, ptr %statistics_, align 8
  ret void
}

; Function Attrs: uwtable
define linkonce_odr hidden noundef ptr @_ZTWN7rocksdb12perf_contextE() #2 comdat {
  br i1 icmp ne (ptr @_ZTHN7rocksdb12perf_contextE, ptr null), label %1, label %2

1:                                                ; preds = %0
  call void @_ZTHN7rocksdb12perf_contextE()
  br label %2

2:                                                ; preds = %1, %0
  %3 = call align 8 ptr @llvm.threadlocal.address.p0(ptr align 8 @_ZN7rocksdb12perf_contextE)
  ret ptr %3
}

; Function Attrs: mustprogress uwtable
define void @_ZN7rocksdb15TimedFileSystem11GetFileSizeERKNSt7__cxx1112basic_stringIcSt11char_traitsIcESaIcEEERKNS_9IOOptionsEPmPNS_14IODebugContextE(ptr noalias sret(%"class.rocksdb::IOStatus") align 8 %agg.result, ptr noundef nonnull align 8 dereferenceable(48) %this, ptr noundef nonnull align 8 dereferenceable(32) %fname, ptr noundef nonnull align 8 dereferenceable(83) %options, ptr noundef %file_size, ptr noundef %dbg) unnamed_addr #0 align 2 personality ptr @__gxx_personality_v0 {
entry:
  %result.ptr = alloca ptr, align 8
  %this.addr = alloca ptr, align 8
  %fname.addr = alloca ptr, align 8
  %options.addr = alloca ptr, align 8
  %file_size.addr = alloca ptr, align 8
  %dbg.addr = alloca ptr, align 8
  %perf_step_timer_env_get_file_size_nanos = alloca %"class.rocksdb::PerfStepTimer", align 8
  %exn.slot = alloca ptr, align 8
  %ehselector.slot = alloca i32, align 4
  store ptr %agg.result, ptr %result.ptr, align 8
  store ptr %this, ptr %this.addr, align 8
  store ptr %fname, ptr %fname.addr, align 8
  store ptr %options, ptr %options.addr, align 8
  store ptr %file_size, ptr %file_size.addr, align 8
  store ptr %dbg, ptr %dbg.addr, align 8
  %this1 = load ptr, ptr %this.addr, align 8
  %0 = call ptr @_ZTWN7rocksdb12perf_contextE()
  %env_get_file_size_nanos = getelementptr inbounds %"struct.rocksdb::PerfContextBase", ptr %0, i32 0, i32 84
  call void @_ZN7rocksdb13PerfStepTimerC2EPmPNS_11SystemClockEbNS_9PerfLevelEPNS_10StatisticsEj(ptr noundef nonnull align 8 dereferenceable(40) %perf_step_timer_env_get_file_size_nanos, ptr noundef %env_get_file_size_nanos, ptr noundef null, i1 noundef zeroext false, i8 noundef zeroext 3, ptr noundef null, i32 noundef 0)
  invoke void @_ZN7rocksdb13PerfStepTimer5StartEv(ptr noundef nonnull align 8 dereferenceable(40) %perf_step_timer_env_get_file_size_nanos)
          to label %invoke.cont unwind label %lpad

invoke.cont:                                      ; preds = %entry
  %1 = load ptr, ptr %fname.addr, align 8
  %2 = load ptr, ptr %options.addr, align 8
  %3 = load ptr, ptr %file_size.addr, align 8
  %4 = load ptr, ptr %dbg.addr, align 8
  invoke void @_ZN7rocksdb17FileSystemWrapper11GetFileSizeERKNSt7__cxx1112basic_stringIcSt11char_traitsIcESaIcEEERKNS_9IOOptionsEPmPNS_14IODebugContextE(ptr sret(%"class.rocksdb::IOStatus") align 8 %agg.result, ptr noundef nonnull align 8 dereferenceable(48) %this1, ptr noundef nonnull align 8 dereferenceable(32) %1, ptr noundef nonnull align 8 dereferenceable(83) %2, ptr noundef %3, ptr noundef %4)
          to label %invoke.cont2 unwind label %lpad

invoke.cont2:                                     ; preds = %invoke.cont
  call void @_ZN7rocksdb13PerfStepTimerD2Ev(ptr noundef nonnull align 8 dereferenceable(40) %perf_step_timer_env_get_file_size_nanos) #13
  ret void

lpad:                                             ; preds = %invoke.cont, %entry
  %5 = landingpad { ptr, i32 }
          cleanup
  %6 = extractvalue { ptr, i32 } %5, 0
  store ptr %6, ptr %exn.slot, align 8
  %7 = extractvalue { ptr, i32 } %5, 1
  store i32 %7, ptr %ehselector.slot, align 4
  call void @_ZN7rocksdb13PerfStepTimerD2Ev(ptr noundef nonnull align 8 dereferenceable(40) %perf_step_timer_env_get_file_size_nanos) #13
  br label %eh.resume

eh.resume:                                        ; preds = %lpad
  %exn = load ptr, ptr %exn.slot, align 8
  %sel = load i32, ptr %ehselector.slot, align 4
  %lpad.val = insertvalue { ptr, i32 } poison, ptr %exn, 0
  %lpad.val3 = insertvalue { ptr, i32 } %lpad.val, i32 %sel, 1
  resume { ptr, i32 } %lpad.val3
}